target datalayout = "e-m:e-p270:32:32-p271:32:32-p272:64:64-i64:64-i128:128-f80:128-n8:16:32:64-S128"
target triple = "x86_64-pc-linux-gnu"

; Function Attrs: nounwind uwtable
define internal i32 @xv_control_message(ptr noundef %0, i32 noundef %1, ptr noundef %2, i64 noundef %3) #0 {
  %5 = alloca i32, align 4
  %6 = alloca ptr, align 8
  %7 = alloca i32, align 4
  %8 = alloca ptr, align 8
  %9 = alloca i64, align 8
  store ptr %0, ptr %6, align 8, !tbaa !4
  store i32 %1, ptr %7, align 4, !tbaa !27
  store ptr %2, ptr %8, align 8, !tbaa !26
  store i64 %3, ptr %9, align 8, !tbaa !106
  %10 = load i32, ptr %7, align 4, !tbaa !27
  switch i32 %10, label %14 [
    i32 1380274241, label %11
  ]

11:                                               ; preds = %4
  %12 = load ptr, ptr %6, align 8, !tbaa !4
  %13 = call i32 @xv_repaint(ptr noundef %12)
  store i32 %13, ptr %5, align 4
  br label %16

14:                                               ; preds = %4
  br label %15

15:                                               ; preds = %14
  store i32 -38, ptr %5, align 4
  br label %16

16:                                               ; preds = %15, %11
  %17 = load i32, ptr %5, align 4
  ret i32 %17
}