; Function Attrs: nounwind uwtable
define internal range(i32 -542398533, 1) i32 @xv_control_message(ptr noundef %0, i32 noundef %1, ptr readnone captures(none) %2, i64 %3) #0 {
  %cond = icmp eq i32 %1, 1380274241
  br i1 %cond, label %5, label %7

5:                                                ; preds = %4
  %6 = tail call fastcc i32 @xv_repaint(ptr noundef %0)
  br label %7

7:                                                ; preds = %4, %5
  %.0 = phi i32 [ %6, %5 ], [ -38, %4 ]
  ret i32 %.0
}